
bin/kernel.elf:     file format elf64-littleaarch64


Disassembly of section .text.boot:

0000000040000000 <_start>:
    40000000:	d53800a0 	mrs	x0, mpidr_el1
    40000004:	92401c00 	and	x0, x0, #0xff
    40000008:	b4000060 	cbz	x0, 40000014 <primary_cpu>

000000004000000c <secondary_halt>:
    4000000c:	d503205f 	wfe
    40000010:	17ffffff 	b	4000000c <secondary_halt>

0000000040000014 <primary_cpu>:
    40000014:	d5034fdf 	msr	daifset, #0xf
    40000018:	b0000020 	adrp	x0, 40005000 <__bss_end+0x31c0>
    4000001c:	91390000 	add	x0, x0, #0xe40
    40000020:	9100001f 	mov	sp, x0
    40000024:	940001fb 	bl	40000810 <uart_init>
    40000028:	b0000000 	adrp	x0, 40001000 <kernel_main+0x710>
    4000002c:	91254400 	add	x0, x0, #0x951
    40000030:	94000221 	bl	400008b4 <uart_send_string>
    40000034:	d5384240 	mrs	x0, currentel
    40000038:	d342fc00 	lsr	x0, x0, #2
    4000003c:	f1000c1f 	cmp	x0, #0x3
    40000040:	54000120 	b.eq	40000064 <el3_setup>  // b.none
    40000044:	f100081f 	cmp	x0, #0x2
    40000048:	540002c0 	b.eq	400000a0 <el2_setup>  // b.none
    4000004c:	f100041f 	cmp	x0, #0x1
    40000050:	54000420 	b.eq	400000d4 <el1_setup>  // b.none
    40000054:	b0000000 	adrp	x0, 40001000 <kernel_main+0x710>
    40000058:	9121a000 	add	x0, x0, #0x868
    4000005c:	94000216 	bl	400008b4 <uart_send_string>
    40000060:	14000036 	b	40000138 <hang>

0000000040000064 <el3_setup>:
    40000064:	b0000000 	adrp	x0, 40001000 <kernel_main+0x710>
    40000068:	91222000 	add	x0, x0, #0x888
    4000006c:	94000212 	bl	400008b4 <uart_send_string>
    40000070:	58000700 	ldr	x0, 40000150 <hang+0x18>
    40000074:	d51e1100 	msr	scr_el3, x0
    40000078:	58000700 	ldr	x0, 40000158 <hang+0x20>
    4000007c:	d51e1140 	msr	cptr_el3, x0
    40000080:	d2b00000 	mov	x0, #0x80000000            	// #2147483648
    40000084:	d51ec000 	msr	vbar_el3, x0
    40000088:	580006c0 	ldr	x0, 40000160 <hang+0x28>
    4000008c:	d51e4020 	msr	elr_el3, x0
    40000090:	d28078a0 	mov	x0, #0x3c5                 	// #965
    40000094:	d51e4000 	msr	spsr_el3, x0
    40000098:	d69f03e0 	eret

000000004000009c <el2_entry>:
    4000009c:	14000001 	b	400000a0 <el2_setup>

00000000400000a0 <el2_setup>:
    400000a0:	b0000000 	adrp	x0, 40001000 <kernel_main+0x710>
    400000a4:	9122c800 	add	x0, x0, #0x8b2
    400000a8:	94000203 	bl	400008b4 <uart_send_string>
    400000ac:	580005e0 	ldr	x0, 40000168 <hang+0x30>
    400000b0:	d51cc000 	msr	vbar_el2, x0
    400000b4:	d2b00000 	mov	x0, #0x80000000            	// #2147483648
    400000b8:	d51c1100 	msr	hcr_el2, x0
    400000bc:	580005a0 	ldr	x0, 40000170 <hang+0x38>
    400000c0:	d51c4020 	msr	elr_el2, x0
    400000c4:	d28078a0 	mov	x0, #0x3c5                 	// #965
    400000c8:	d51c4000 	msr	spsr_el2, x0
    400000cc:	d69f03e0 	eret

00000000400000d0 <el1_entry>:
    400000d0:	14000001 	b	400000d4 <el1_setup>

00000000400000d4 <el1_setup>:
    400000d4:	b0000000 	adrp	x0, 40001000 <kernel_main+0x710>
    400000d8:	91237000 	add	x0, x0, #0x8dc
    400000dc:	940001f6 	bl	400008b4 <uart_send_string>
    400000e0:	90000000 	adrp	x0, 40000000 <_start>
    400000e4:	91200000 	add	x0, x0, #0x800
    400000e8:	d518c000 	msr	vbar_el1, x0
    400000ec:	d5033fdf 	isb
    400000f0:	b0000000 	adrp	x0, 40001000 <kernel_main+0x710>
    400000f4:	91390000 	add	x0, x0, #0xe40
    400000f8:	b0000001 	adrp	x1, 40001000 <kernel_main+0x710>
    400000fc:	91390021 	add	x1, x1, #0xe40

0000000040000100 <clear_bss>:
    40000100:	eb01001f 	cmp	x0, x1
    40000104:	54000060 	b.eq	40000110 <bss_cleared>  // b.none
    40000108:	f800841f 	str	xzr, [x0], #8
    4000010c:	17fffffd 	b	40000100 <clear_bss>

0000000040000110 <bss_cleared>:
    40000110:	b0000000 	adrp	x0, 40001000 <kernel_main+0x710>
    40000114:	91247800 	add	x0, x0, #0x91e
    40000118:	940001e7 	bl	400008b4 <uart_send_string>
    4000011c:	90000004 	adrp	x4, 40000000 <_start>
    40000120:	9105e084 	add	x4, x4, #0x178
    40000124:	d61f0080 	br	x4

0000000040000128 <memory_error>:
    40000128:	b0000000 	adrp	x0, 40001000 <kernel_main+0x710>
    4000012c:	9123f400 	add	x0, x0, #0x8fd
    40000130:	940001e1 	bl	400008b4 <uart_send_string>
    40000134:	14000001 	b	40000138 <hang>

0000000040000138 <hang>:
    40000138:	b0000000 	adrp	x0, 40001000 <kernel_main+0x710>
    4000013c:	91250800 	add	x0, x0, #0x942
    40000140:	940001dd 	bl	400008b4 <uart_send_string>
    40000144:	d503205f 	wfe
    40000148:	17fffffc 	b	40000138 <hang>
    4000014c:	00000000 	udf	#0
    40000150:	000005b1 	udf	#1457
    40000154:	00000000 	udf	#0
    40000158:	000001c9 	udf	#457
    4000015c:	00000000 	udf	#0
    40000160:	4000009c 	.inst	0x4000009c ; undefined
    40000164:	00000000 	udf	#0
    40000168:	80000000 	.inst	0x80000000 ; undefined
    4000016c:	00000000 	udf	#0
    40000170:	400000d0 	.inst	0x400000d0 ; undefined
    40000174:	00000000 	udf	#0

Disassembly of section .text.boot.stage2:

0000000040000178 <boot_second_stage>:
    40000178:	b0000000 	adrp	x0, 40001000 <kernel_main+0x710>
    4000017c:	91273000 	add	x0, x0, #0x9cc
    40000180:	940001cd 	bl	400008b4 <uart_send_string>
    40000184:	d5381000 	mrs	x0, sctlr_el1
    40000188:	927ef800 	and	x0, x0, #0xfffffffffffffffd
    4000018c:	b2740000 	orr	x0, x0, #0x1000
    40000190:	b27e0000 	orr	x0, x0, #0x4
    40000194:	d5181000 	msr	sctlr_el1, x0
    40000198:	d5033fdf 	isb
    4000019c:	90000000 	adrp	x0, 40000000 <_start>
    400001a0:	91200000 	add	x0, x0, #0x800
    400001a4:	d518c000 	msr	vbar_el1, x0
    400001a8:	d5033fdf 	isb
    400001ac:	b0000000 	adrp	x0, 40001000 <kernel_main+0x710>
    400001b0:	9127b400 	add	x0, x0, #0x9ed
    400001b4:	940001c0 	bl	400008b4 <uart_send_string>
    400001b8:	9400002d 	bl	4000026c <init_boot_info>
    400001bc:	b0000000 	adrp	x0, 40001000 <kernel_main+0x710>
    400001c0:	9125c400 	add	x0, x0, #0x971
    400001c4:	940001bc 	bl	400008b4 <uart_send_string>
    400001c8:	b0000000 	adrp	x0, 40001000 <kernel_main+0x710>
    400001cc:	91380000 	add	x0, x0, #0xe00
    400001d0:	d2800001 	mov	x1, #0x0                   	// #0
    400001d4:	d2800002 	mov	x2, #0x0                   	// #0
    400001d8:	d2800003 	mov	x3, #0x0                   	// #0
    400001dc:	d2800004 	mov	x4, #0x0                   	// #0
    400001e0:	d2800005 	mov	x5, #0x0                   	// #0
    400001e4:	d2800006 	mov	x6, #0x0                   	// #0
    400001e8:	d2800007 	mov	x7, #0x0                   	// #0
    400001ec:	d2800008 	mov	x8, #0x0                   	// #0
    400001f0:	d2800009 	mov	x9, #0x0                   	// #0
    400001f4:	d280000a 	mov	x10, #0x0                   	// #0
    400001f8:	d280000b 	mov	x11, #0x0                   	// #0
    400001fc:	d280000c 	mov	x12, #0x0                   	// #0
    40000200:	d280000d 	mov	x13, #0x0                   	// #0
    40000204:	d280000e 	mov	x14, #0x0                   	// #0
    40000208:	d280000f 	mov	x15, #0x0                   	// #0
    4000020c:	d2800010 	mov	x16, #0x0                   	// #0
    40000210:	d2800011 	mov	x17, #0x0                   	// #0
    40000214:	d2800012 	mov	x18, #0x0                   	// #0
    40000218:	d2800013 	mov	x19, #0x0                   	// #0
    4000021c:	d2800014 	mov	x20, #0x0                   	// #0
    40000220:	d2800015 	mov	x21, #0x0                   	// #0
    40000224:	d2800016 	mov	x22, #0x0                   	// #0
    40000228:	d2800017 	mov	x23, #0x0                   	// #0
    4000022c:	d2800018 	mov	x24, #0x0                   	// #0
    40000230:	d2800019 	mov	x25, #0x0                   	// #0
    40000234:	d280001a 	mov	x26, #0x0                   	// #0
    40000238:	d280001b 	mov	x27, #0x0                   	// #0
    4000023c:	d280001c 	mov	x28, #0x0                   	// #0
    40000240:	d280001d 	mov	x29, #0x0                   	// #0
    40000244:	90000001 	adrp	x1, 40000000 <_start>
    40000248:	9123c021 	add	x1, x1, #0x8f0
    4000024c:	d280001e 	mov	x30, #0x0                   	// #0
    40000250:	d61f0020 	br	x1

0000000040000254 <boot_error>:
    40000254:	b0000000 	adrp	x0, 40001000 <kernel_main+0x710>
    40000258:	91266000 	add	x0, x0, #0x998
    4000025c:	94000196 	bl	400008b4 <uart_send_string>
    40000260:	14000001 	b	40000264 <boot_halt>

0000000040000264 <boot_halt>:
    40000264:	d503205f 	wfe
    40000268:	17ffffff 	b	40000264 <boot_halt>

000000004000026c <init_boot_info>:
    4000026c:	a9bf7bfd 	stp	x29, x30, [sp, #-16]!
    40000270:	910003fd 	mov	x29, sp
    40000274:	b0000000 	adrp	x0, 40001000 <kernel_main+0x710>
    40000278:	91380000 	add	x0, x0, #0xe00
    4000027c:	d289ea81 	mov	x1, #0x4f54                	// #20308
    40000280:	f2a849e1 	movk	x1, #0x424f, lsl #16
    40000284:	f9000001 	str	x1, [x0]
    40000288:	d2800001 	mov	x1, #0x0                   	// #0
    4000028c:	f9000401 	str	x1, [x0, #8]
    40000290:	d2a80001 	mov	x1, #0x40000000            	// #1073741824
    40000294:	f9000801 	str	x1, [x0, #16]
    40000298:	a8c17bfd 	ldp	x29, x30, [sp], #16
    4000029c:	d65f03c0 	ret

Disassembly of section .text:

0000000040000800 <_vectors_end>:
    40000800:	b0000000 	adrp	x0, 40001000 <kernel_main+0x710>
    40000804:	91281c00 	add	x0, x0, #0xa07
    40000808:	9400002b 	bl	400008b4 <uart_send_string>
    4000080c:	17fffe92 	b	40000254 <boot_error>

0000000040000810 <uart_init>:
    40000810:	a9bf7bfd 	stp	x29, x30, [sp, #-16]!
    40000814:	910003fd 	mov	x29, sp
    40000818:	58000640 	ldr	x0, 400008e0 <uart_send_string+0x2c>
    4000081c:	52800001 	mov	w1, #0x0                   	// #0
    40000820:	b9003001 	str	w1, [x0, #48]
    40000824:	528001a1 	mov	w1, #0xd                   	// #13
    40000828:	b9002401 	str	w1, [x0, #36]
    4000082c:	52800021 	mov	w1, #0x1                   	// #1
    40000830:	b9002801 	str	w1, [x0, #40]
    40000834:	52800c01 	mov	w1, #0x60                  	// #96
    40000838:	321c0021 	orr	w1, w1, #0x10
    4000083c:	b9002c01 	str	w1, [x0, #44]
    40000840:	52800021 	mov	w1, #0x1                   	// #1
    40000844:	32180021 	orr	w1, w1, #0x100
    40000848:	32170021 	orr	w1, w1, #0x200
    4000084c:	b9003001 	str	w1, [x0, #48]
    40000850:	a8c17bfd 	ldp	x29, x30, [sp], #16
    40000854:	d65f03c0 	ret

0000000040000858 <uart_send_char>:
    40000858:	a9bf7bfd 	stp	x29, x30, [sp, #-16]!
    4000085c:	a9bf07e0 	stp	x0, x1, [sp, #-16]!
    40000860:	910003fd 	mov	x29, sp
    40000864:	7100281f 	cmp	w0, #0xa
    40000868:	54000081 	b.ne	40000878 <uart_send_char+0x20>  // b.any
    4000086c:	528001a0 	mov	w0, #0xd                   	// #13
    40000870:	94000006 	bl	40000888 <uart_send_char_raw>
    40000874:	b94003e0 	ldr	w0, [sp]
    40000878:	94000004 	bl	40000888 <uart_send_char_raw>
    4000087c:	a8c107e0 	ldp	x0, x1, [sp], #16
    40000880:	a8c17bfd 	ldp	x29, x30, [sp], #16
    40000884:	d65f03c0 	ret

0000000040000888 <uart_send_char_raw>:
    40000888:	a9bf7bfd 	stp	x29, x30, [sp, #-16]!
    4000088c:	a9bf07e0 	stp	x0, x1, [sp, #-16]!
    40000890:	910003fd 	mov	x29, sp
    40000894:	58000261 	ldr	x1, 400008e0 <uart_send_string+0x2c>
    40000898:	b9401822 	ldr	w2, [x1, #24]
    4000089c:	121b0042 	and	w2, w2, #0x20
    400008a0:	35ffffc2 	cbnz	w2, 40000898 <uart_send_char_raw+0x10>
    400008a4:	39000020 	strb	w0, [x1]
    400008a8:	a8c107e0 	ldp	x0, x1, [sp], #16
    400008ac:	a8c17bfd 	ldp	x29, x30, [sp], #16
    400008b0:	d65f03c0 	ret

00000000400008b4 <uart_send_string>:
    400008b4:	a9bf7bfd 	stp	x29, x30, [sp, #-16]!
    400008b8:	a9bf07e0 	stp	x0, x1, [sp, #-16]!
    400008bc:	910003fd 	mov	x29, sp
    400008c0:	aa0003e1 	mov	x1, x0
    400008c4:	38401420 	ldrb	w0, [x1], #1
    400008c8:	34000060 	cbz	w0, 400008d4 <uart_send_string+0x20>
    400008cc:	97ffffe3 	bl	40000858 <uart_send_char>
    400008d0:	17fffffd 	b	400008c4 <uart_send_string+0x10>
    400008d4:	a8c107e0 	ldp	x0, x1, [sp], #16
    400008d8:	a8c17bfd 	ldp	x29, x30, [sp], #16
    400008dc:	d65f03c0 	ret
    400008e0:	09000000 	.inst	0x09000000 ; undefined
	...

00000000400008f0 <kernel_main>:
    400008f0:	a9bd7bfd 	stp	x29, x30, [sp, #-48]!
    400008f4:	910003fd 	mov	x29, sp
    400008f8:	a90153f3 	stp	x19, x20, [sp, #16]
    400008fc:	aa0003f3 	mov	x19, x0
    40000900:	97ffffc4 	bl	40000810 <uart_init>
    40000904:	b0000000 	adrp	x0, 40001000 <kernel_main+0x710>
    40000908:	91316000 	add	x0, x0, #0xc58
    4000090c:	97ffffea 	bl	400008b4 <uart_send_string>
    40000910:	b40000d3 	cbz	x19, 40000928 <kernel_main+0x38>
    40000914:	f9400261 	ldr	x1, [x19]
    40000918:	d289ea80 	mov	x0, #0x4f54                	// #20308
    4000091c:	f2a849e0 	movk	x0, #0x424f, lsl #16
    40000920:	eb00003f 	cmp	x1, x0
    40000924:	54000300 	b.eq	40000984 <kernel_main+0x94>  // b.none
    40000928:	b0000000 	adrp	x0, 40001000 <kernel_main+0x710>
    4000092c:	9132c000 	add	x0, x0, #0xcb0
    40000930:	97ffffe1 	bl	400008b4 <uart_send_string>
    40000934:	b0000014 	adrp	x20, 40001000 <kernel_main+0x710>
    40000938:	9133e294 	add	x20, x20, #0xcf8
    4000093c:	5292cff3 	mov	w19, #0x967f                	// #38527
    40000940:	72a01313 	movk	w19, #0x98, lsl #16
    40000944:	b0000000 	adrp	x0, 40001000 <kernel_main+0x710>
    40000948:	91336000 	add	x0, x0, #0xcd8
    4000094c:	97ffffda 	bl	400008b4 <uart_send_string>
    40000950:	b9002fff 	str	wzr, [sp, #44]
    40000954:	b9402fe0 	ldr	w0, [sp, #44]
    40000958:	6b13001f 	cmp	w0, w19
    4000095c:	540000ec 	b.gt	40000978 <kernel_main+0x88>
    40000960:	b9402fe0 	ldr	w0, [sp, #44]
    40000964:	11000400 	add	w0, w0, #0x1
    40000968:	b9002fe0 	str	w0, [sp, #44]
    4000096c:	b9402fe0 	ldr	w0, [sp, #44]
    40000970:	6b13001f 	cmp	w0, w19
    40000974:	54ffff6d 	b.le	40000960 <kernel_main+0x70>
    40000978:	aa1403e0 	mov	x0, x20
    4000097c:	97ffffce 	bl	400008b4 <uart_send_string>
    40000980:	17fffff4 	b	40000950 <kernel_main+0x60>
    40000984:	b0000000 	adrp	x0, 40001000 <kernel_main+0x710>
    40000988:	9131e000 	add	x0, x0, #0xc78
    4000098c:	97ffffca 	bl	400008b4 <uart_send_string>
    40000990:	b0000000 	adrp	x0, 40001000 <kernel_main+0x710>
    40000994:	91328000 	add	x0, x0, #0xca0
    40000998:	97ffffc7 	bl	400008b4 <uart_send_string>
    4000099c:	17ffffe6 	b	40000934 <kernel_main+0x44>

Disassembly of section .vector:

0000000040001000 <el1_sync_sp0-0x784>:
    40001000:	140001e1 	b	40001784 <el1_sync_sp0>
    40001004:	d503201f 	nop
    40001008:	d503201f 	nop
    4000100c:	d503201f 	nop
    40001010:	d503201f 	nop
    40001014:	d503201f 	nop
    40001018:	d503201f 	nop
    4000101c:	d503201f 	nop
    40001020:	d503201f 	nop
    40001024:	d503201f 	nop
    40001028:	d503201f 	nop
    4000102c:	d503201f 	nop
    40001030:	d503201f 	nop
    40001034:	d503201f 	nop
    40001038:	d503201f 	nop
    4000103c:	d503201f 	nop
    40001040:	d503201f 	nop
    40001044:	d503201f 	nop
    40001048:	d503201f 	nop
    4000104c:	d503201f 	nop
    40001050:	d503201f 	nop
    40001054:	d503201f 	nop
    40001058:	d503201f 	nop
    4000105c:	d503201f 	nop
    40001060:	d503201f 	nop
    40001064:	d503201f 	nop
    40001068:	d503201f 	nop
    4000106c:	d503201f 	nop
    40001070:	d503201f 	nop
    40001074:	d503201f 	nop
    40001078:	d503201f 	nop
    4000107c:	d503201f 	nop
    40001080:	140001c5 	b	40001794 <el1_irq_sp0>
    40001084:	d503201f 	nop
    40001088:	d503201f 	nop
    4000108c:	d503201f 	nop
    40001090:	d503201f 	nop
    40001094:	d503201f 	nop
    40001098:	d503201f 	nop
    4000109c:	d503201f 	nop
    400010a0:	d503201f 	nop
    400010a4:	d503201f 	nop
    400010a8:	d503201f 	nop
    400010ac:	d503201f 	nop
    400010b0:	d503201f 	nop
    400010b4:	d503201f 	nop
    400010b8:	d503201f 	nop
    400010bc:	d503201f 	nop
    400010c0:	d503201f 	nop
    400010c4:	d503201f 	nop
    400010c8:	d503201f 	nop
    400010cc:	d503201f 	nop
    400010d0:	d503201f 	nop
    400010d4:	d503201f 	nop
    400010d8:	d503201f 	nop
    400010dc:	d503201f 	nop
    400010e0:	d503201f 	nop
    400010e4:	d503201f 	nop
    400010e8:	d503201f 	nop
    400010ec:	d503201f 	nop
    400010f0:	d503201f 	nop
    400010f4:	d503201f 	nop
    400010f8:	d503201f 	nop
    400010fc:	d503201f 	nop
    40001100:	140001a9 	b	400017a4 <el1_fiq_sp0>
    40001104:	d503201f 	nop
    40001108:	d503201f 	nop
    4000110c:	d503201f 	nop
    40001110:	d503201f 	nop
    40001114:	d503201f 	nop
    40001118:	d503201f 	nop
    4000111c:	d503201f 	nop
    40001120:	d503201f 	nop
    40001124:	d503201f 	nop
    40001128:	d503201f 	nop
    4000112c:	d503201f 	nop
    40001130:	d503201f 	nop
    40001134:	d503201f 	nop
    40001138:	d503201f 	nop
    4000113c:	d503201f 	nop
    40001140:	d503201f 	nop
    40001144:	d503201f 	nop
    40001148:	d503201f 	nop
    4000114c:	d503201f 	nop
    40001150:	d503201f 	nop
    40001154:	d503201f 	nop
    40001158:	d503201f 	nop
    4000115c:	d503201f 	nop
    40001160:	d503201f 	nop
    40001164:	d503201f 	nop
    40001168:	d503201f 	nop
    4000116c:	d503201f 	nop
    40001170:	d503201f 	nop
    40001174:	d503201f 	nop
    40001178:	d503201f 	nop
    4000117c:	d503201f 	nop
    40001180:	1400018d 	b	400017b4 <el1_error_sp0>
    40001184:	d503201f 	nop
    40001188:	d503201f 	nop
    4000118c:	d503201f 	nop
    40001190:	d503201f 	nop
    40001194:	d503201f 	nop
    40001198:	d503201f 	nop
    4000119c:	d503201f 	nop
    400011a0:	d503201f 	nop
    400011a4:	d503201f 	nop
    400011a8:	d503201f 	nop
    400011ac:	d503201f 	nop
    400011b0:	d503201f 	nop
    400011b4:	d503201f 	nop
    400011b8:	d503201f 	nop
    400011bc:	d503201f 	nop
    400011c0:	d503201f 	nop
    400011c4:	d503201f 	nop
    400011c8:	d503201f 	nop
    400011cc:	d503201f 	nop
    400011d0:	d503201f 	nop
    400011d4:	d503201f 	nop
    400011d8:	d503201f 	nop
    400011dc:	d503201f 	nop
    400011e0:	d503201f 	nop
    400011e4:	d503201f 	nop
    400011e8:	d503201f 	nop
    400011ec:	d503201f 	nop
    400011f0:	d503201f 	nop
    400011f4:	d503201f 	nop
    400011f8:	d503201f 	nop
    400011fc:	d503201f 	nop
    40001200:	14000171 	b	400017c4 <el1_sync_spx>
    40001204:	d503201f 	nop
    40001208:	d503201f 	nop
    4000120c:	d503201f 	nop
    40001210:	d503201f 	nop
    40001214:	d503201f 	nop
    40001218:	d503201f 	nop
    4000121c:	d503201f 	nop
    40001220:	d503201f 	nop
    40001224:	d503201f 	nop
    40001228:	d503201f 	nop
    4000122c:	d503201f 	nop
    40001230:	d503201f 	nop
    40001234:	d503201f 	nop
    40001238:	d503201f 	nop
    4000123c:	d503201f 	nop
    40001240:	d503201f 	nop
    40001244:	d503201f 	nop
    40001248:	d503201f 	nop
    4000124c:	d503201f 	nop
    40001250:	d503201f 	nop
    40001254:	d503201f 	nop
    40001258:	d503201f 	nop
    4000125c:	d503201f 	nop
    40001260:	d503201f 	nop
    40001264:	d503201f 	nop
    40001268:	d503201f 	nop
    4000126c:	d503201f 	nop
    40001270:	d503201f 	nop
    40001274:	d503201f 	nop
    40001278:	d503201f 	nop
    4000127c:	d503201f 	nop
    40001280:	14000155 	b	400017d4 <el1_irq_spx>
    40001284:	d503201f 	nop
    40001288:	d503201f 	nop
    4000128c:	d503201f 	nop
    40001290:	d503201f 	nop
    40001294:	d503201f 	nop
    40001298:	d503201f 	nop
    4000129c:	d503201f 	nop
    400012a0:	d503201f 	nop
    400012a4:	d503201f 	nop
    400012a8:	d503201f 	nop
    400012ac:	d503201f 	nop
    400012b0:	d503201f 	nop
    400012b4:	d503201f 	nop
    400012b8:	d503201f 	nop
    400012bc:	d503201f 	nop
    400012c0:	d503201f 	nop
    400012c4:	d503201f 	nop
    400012c8:	d503201f 	nop
    400012cc:	d503201f 	nop
    400012d0:	d503201f 	nop
    400012d4:	d503201f 	nop
    400012d8:	d503201f 	nop
    400012dc:	d503201f 	nop
    400012e0:	d503201f 	nop
    400012e4:	d503201f 	nop
    400012e8:	d503201f 	nop
    400012ec:	d503201f 	nop
    400012f0:	d503201f 	nop
    400012f4:	d503201f 	nop
    400012f8:	d503201f 	nop
    400012fc:	d503201f 	nop
    40001300:	14000139 	b	400017e4 <el1_fiq_spx>
    40001304:	d503201f 	nop
    40001308:	d503201f 	nop
    4000130c:	d503201f 	nop
    40001310:	d503201f 	nop
    40001314:	d503201f 	nop
    40001318:	d503201f 	nop
    4000131c:	d503201f 	nop
    40001320:	d503201f 	nop
    40001324:	d503201f 	nop
    40001328:	d503201f 	nop
    4000132c:	d503201f 	nop
    40001330:	d503201f 	nop
    40001334:	d503201f 	nop
    40001338:	d503201f 	nop
    4000133c:	d503201f 	nop
    40001340:	d503201f 	nop
    40001344:	d503201f 	nop
    40001348:	d503201f 	nop
    4000134c:	d503201f 	nop
    40001350:	d503201f 	nop
    40001354:	d503201f 	nop
    40001358:	d503201f 	nop
    4000135c:	d503201f 	nop
    40001360:	d503201f 	nop
    40001364:	d503201f 	nop
    40001368:	d503201f 	nop
    4000136c:	d503201f 	nop
    40001370:	d503201f 	nop
    40001374:	d503201f 	nop
    40001378:	d503201f 	nop
    4000137c:	d503201f 	nop
    40001380:	1400011d 	b	400017f4 <el1_error_spx>
    40001384:	d503201f 	nop
    40001388:	d503201f 	nop
    4000138c:	d503201f 	nop
    40001390:	d503201f 	nop
    40001394:	d503201f 	nop
    40001398:	d503201f 	nop
    4000139c:	d503201f 	nop
    400013a0:	d503201f 	nop
    400013a4:	d503201f 	nop
    400013a8:	d503201f 	nop
    400013ac:	d503201f 	nop
    400013b0:	d503201f 	nop
    400013b4:	d503201f 	nop
    400013b8:	d503201f 	nop
    400013bc:	d503201f 	nop
    400013c0:	d503201f 	nop
    400013c4:	d503201f 	nop
    400013c8:	d503201f 	nop
    400013cc:	d503201f 	nop
    400013d0:	d503201f 	nop
    400013d4:	d503201f 	nop
    400013d8:	d503201f 	nop
    400013dc:	d503201f 	nop
    400013e0:	d503201f 	nop
    400013e4:	d503201f 	nop
    400013e8:	d503201f 	nop
    400013ec:	d503201f 	nop
    400013f0:	d503201f 	nop
    400013f4:	d503201f 	nop
    400013f8:	d503201f 	nop
    400013fc:	d503201f 	nop
    40001400:	14000101 	b	40001804 <el0_sync_a64>
    40001404:	d503201f 	nop
    40001408:	d503201f 	nop
    4000140c:	d503201f 	nop
    40001410:	d503201f 	nop
    40001414:	d503201f 	nop
    40001418:	d503201f 	nop
    4000141c:	d503201f 	nop
    40001420:	d503201f 	nop
    40001424:	d503201f 	nop
    40001428:	d503201f 	nop
    4000142c:	d503201f 	nop
    40001430:	d503201f 	nop
    40001434:	d503201f 	nop
    40001438:	d503201f 	nop
    4000143c:	d503201f 	nop
    40001440:	d503201f 	nop
    40001444:	d503201f 	nop
    40001448:	d503201f 	nop
    4000144c:	d503201f 	nop
    40001450:	d503201f 	nop
    40001454:	d503201f 	nop
    40001458:	d503201f 	nop
    4000145c:	d503201f 	nop
    40001460:	d503201f 	nop
    40001464:	d503201f 	nop
    40001468:	d503201f 	nop
    4000146c:	d503201f 	nop
    40001470:	d503201f 	nop
    40001474:	d503201f 	nop
    40001478:	d503201f 	nop
    4000147c:	d503201f 	nop
    40001480:	140000e5 	b	40001814 <el0_irq_a64>
    40001484:	d503201f 	nop
    40001488:	d503201f 	nop
    4000148c:	d503201f 	nop
    40001490:	d503201f 	nop
    40001494:	d503201f 	nop
    40001498:	d503201f 	nop
    4000149c:	d503201f 	nop
    400014a0:	d503201f 	nop
    400014a4:	d503201f 	nop
    400014a8:	d503201f 	nop
    400014ac:	d503201f 	nop
    400014b0:	d503201f 	nop
    400014b4:	d503201f 	nop
    400014b8:	d503201f 	nop
    400014bc:	d503201f 	nop
    400014c0:	d503201f 	nop
    400014c4:	d503201f 	nop
    400014c8:	d503201f 	nop
    400014cc:	d503201f 	nop
    400014d0:	d503201f 	nop
    400014d4:	d503201f 	nop
    400014d8:	d503201f 	nop
    400014dc:	d503201f 	nop
    400014e0:	d503201f 	nop
    400014e4:	d503201f 	nop
    400014e8:	d503201f 	nop
    400014ec:	d503201f 	nop
    400014f0:	d503201f 	nop
    400014f4:	d503201f 	nop
    400014f8:	d503201f 	nop
    400014fc:	d503201f 	nop
    40001500:	140000c9 	b	40001824 <el0_fiq_a64>
    40001504:	d503201f 	nop
    40001508:	d503201f 	nop
    4000150c:	d503201f 	nop
    40001510:	d503201f 	nop
    40001514:	d503201f 	nop
    40001518:	d503201f 	nop
    4000151c:	d503201f 	nop
    40001520:	d503201f 	nop
    40001524:	d503201f 	nop
    40001528:	d503201f 	nop
    4000152c:	d503201f 	nop
    40001530:	d503201f 	nop
    40001534:	d503201f 	nop
    40001538:	d503201f 	nop
    4000153c:	d503201f 	nop
    40001540:	d503201f 	nop
    40001544:	d503201f 	nop
    40001548:	d503201f 	nop
    4000154c:	d503201f 	nop
    40001550:	d503201f 	nop
    40001554:	d503201f 	nop
    40001558:	d503201f 	nop
    4000155c:	d503201f 	nop
    40001560:	d503201f 	nop
    40001564:	d503201f 	nop
    40001568:	d503201f 	nop
    4000156c:	d503201f 	nop
    40001570:	d503201f 	nop
    40001574:	d503201f 	nop
    40001578:	d503201f 	nop
    4000157c:	d503201f 	nop
    40001580:	140000ad 	b	40001834 <el0_error_a64>
    40001584:	d503201f 	nop
    40001588:	d503201f 	nop
    4000158c:	d503201f 	nop
    40001590:	d503201f 	nop
    40001594:	d503201f 	nop
    40001598:	d503201f 	nop
    4000159c:	d503201f 	nop
    400015a0:	d503201f 	nop
    400015a4:	d503201f 	nop
    400015a8:	d503201f 	nop
    400015ac:	d503201f 	nop
    400015b0:	d503201f 	nop
    400015b4:	d503201f 	nop
    400015b8:	d503201f 	nop
    400015bc:	d503201f 	nop
    400015c0:	d503201f 	nop
    400015c4:	d503201f 	nop
    400015c8:	d503201f 	nop
    400015cc:	d503201f 	nop
    400015d0:	d503201f 	nop
    400015d4:	d503201f 	nop
    400015d8:	d503201f 	nop
    400015dc:	d503201f 	nop
    400015e0:	d503201f 	nop
    400015e4:	d503201f 	nop
    400015e8:	d503201f 	nop
    400015ec:	d503201f 	nop
    400015f0:	d503201f 	nop
    400015f4:	d503201f 	nop
    400015f8:	d503201f 	nop
    400015fc:	d503201f 	nop
    40001600:	14000091 	b	40001844 <el0_error_a32>
    40001604:	d503201f 	nop
    40001608:	d503201f 	nop
    4000160c:	d503201f 	nop
    40001610:	d503201f 	nop
    40001614:	d503201f 	nop
    40001618:	d503201f 	nop
    4000161c:	d503201f 	nop
    40001620:	d503201f 	nop
    40001624:	d503201f 	nop
    40001628:	d503201f 	nop
    4000162c:	d503201f 	nop
    40001630:	d503201f 	nop
    40001634:	d503201f 	nop
    40001638:	d503201f 	nop
    4000163c:	d503201f 	nop
    40001640:	d503201f 	nop
    40001644:	d503201f 	nop
    40001648:	d503201f 	nop
    4000164c:	d503201f 	nop
    40001650:	d503201f 	nop
    40001654:	d503201f 	nop
    40001658:	d503201f 	nop
    4000165c:	d503201f 	nop
    40001660:	d503201f 	nop
    40001664:	d503201f 	nop
    40001668:	d503201f 	nop
    4000166c:	d503201f 	nop
    40001670:	d503201f 	nop
    40001674:	d503201f 	nop
    40001678:	d503201f 	nop
    4000167c:	d503201f 	nop
    40001680:	14000071 	b	40001844 <el0_error_a32>
    40001684:	d503201f 	nop
    40001688:	d503201f 	nop
    4000168c:	d503201f 	nop
    40001690:	d503201f 	nop
    40001694:	d503201f 	nop
    40001698:	d503201f 	nop
    4000169c:	d503201f 	nop
    400016a0:	d503201f 	nop
    400016a4:	d503201f 	nop
    400016a8:	d503201f 	nop
    400016ac:	d503201f 	nop
    400016b0:	d503201f 	nop
    400016b4:	d503201f 	nop
    400016b8:	d503201f 	nop
    400016bc:	d503201f 	nop
    400016c0:	d503201f 	nop
    400016c4:	d503201f 	nop
    400016c8:	d503201f 	nop
    400016cc:	d503201f 	nop
    400016d0:	d503201f 	nop
    400016d4:	d503201f 	nop
    400016d8:	d503201f 	nop
    400016dc:	d503201f 	nop
    400016e0:	d503201f 	nop
    400016e4:	d503201f 	nop
    400016e8:	d503201f 	nop
    400016ec:	d503201f 	nop
    400016f0:	d503201f 	nop
    400016f4:	d503201f 	nop
    400016f8:	d503201f 	nop
    400016fc:	d503201f 	nop
    40001700:	14000051 	b	40001844 <el0_error_a32>
    40001704:	d503201f 	nop
    40001708:	d503201f 	nop
    4000170c:	d503201f 	nop
    40001710:	d503201f 	nop
    40001714:	d503201f 	nop
    40001718:	d503201f 	nop
    4000171c:	d503201f 	nop
    40001720:	d503201f 	nop
    40001724:	d503201f 	nop
    40001728:	d503201f 	nop
    4000172c:	d503201f 	nop
    40001730:	d503201f 	nop
    40001734:	d503201f 	nop
    40001738:	d503201f 	nop
    4000173c:	d503201f 	nop
    40001740:	d503201f 	nop
    40001744:	d503201f 	nop
    40001748:	d503201f 	nop
    4000174c:	d503201f 	nop
    40001750:	d503201f 	nop
    40001754:	d503201f 	nop
    40001758:	d503201f 	nop
    4000175c:	d503201f 	nop
    40001760:	d503201f 	nop
    40001764:	d503201f 	nop
    40001768:	d503201f 	nop
    4000176c:	d503201f 	nop
    40001770:	d503201f 	nop
    40001774:	d503201f 	nop
    40001778:	d503201f 	nop
    4000177c:	d503201f 	nop
    40001780:	14000031 	b	40001844 <el0_error_a32>

0000000040001784 <el1_sync_sp0>:
    40001784:	90000000 	adrp	x0, 40001000 <kernel_main+0x710>
    40001788:	9128b000 	add	x0, x0, #0xa2c
    4000178c:	97fffc4a 	bl	400008b4 <uart_send_string>
    40001790:	14000031 	b	40001854 <exception_hang>

0000000040001794 <el1_irq_sp0>:
    40001794:	90000000 	adrp	x0, 40001000 <kernel_main+0x710>
    40001798:	91294400 	add	x0, x0, #0xa51
    4000179c:	97fffc46 	bl	400008b4 <uart_send_string>
    400017a0:	1400002d 	b	40001854 <exception_hang>

00000000400017a4 <el1_fiq_sp0>:
    400017a4:	90000000 	adrp	x0, 40001000 <kernel_main+0x710>
    400017a8:	9129b800 	add	x0, x0, #0xa6e
    400017ac:	97fffc42 	bl	400008b4 <uart_send_string>
    400017b0:	14000029 	b	40001854 <exception_hang>

00000000400017b4 <el1_error_sp0>:
    400017b4:	90000000 	adrp	x0, 40001000 <kernel_main+0x710>
    400017b8:	912a2c00 	add	x0, x0, #0xa8b
    400017bc:	97fffc3e 	bl	400008b4 <uart_send_string>
    400017c0:	14000025 	b	40001854 <exception_hang>

00000000400017c4 <el1_sync_spx>:
    400017c4:	90000000 	adrp	x0, 40001000 <kernel_main+0x710>
    400017c8:	912aac00 	add	x0, x0, #0xaab
    400017cc:	97fffc3a 	bl	400008b4 <uart_send_string>
    400017d0:	14000021 	b	40001854 <exception_hang>

00000000400017d4 <el1_irq_spx>:
    400017d4:	90000000 	adrp	x0, 40001000 <kernel_main+0x710>
    400017d8:	912b4000 	add	x0, x0, #0xad0
    400017dc:	97fffc36 	bl	400008b4 <uart_send_string>
    400017e0:	1400001d 	b	40001854 <exception_hang>

00000000400017e4 <el1_fiq_spx>:
    400017e4:	90000000 	adrp	x0, 40001000 <kernel_main+0x710>
    400017e8:	912bb400 	add	x0, x0, #0xaed
    400017ec:	97fffc32 	bl	400008b4 <uart_send_string>
    400017f0:	14000019 	b	40001854 <exception_hang>

00000000400017f4 <el1_error_spx>:
    400017f4:	90000000 	adrp	x0, 40001000 <kernel_main+0x710>
    400017f8:	912c2800 	add	x0, x0, #0xb0a
    400017fc:	97fffc2e 	bl	400008b4 <uart_send_string>
    40001800:	14000015 	b	40001854 <exception_hang>

0000000040001804 <el0_sync_a64>:
    40001804:	90000000 	adrp	x0, 40001000 <kernel_main+0x710>
    40001808:	912ca800 	add	x0, x0, #0xb2a
    4000180c:	97fffc2a 	bl	400008b4 <uart_send_string>
    40001810:	14000011 	b	40001854 <exception_hang>

0000000040001814 <el0_irq_a64>:
    40001814:	90000000 	adrp	x0, 40001000 <kernel_main+0x710>
    40001818:	912d2800 	add	x0, x0, #0xb4a
    4000181c:	97fffc26 	bl	400008b4 <uart_send_string>
    40001820:	1400000d 	b	40001854 <exception_hang>

0000000040001824 <el0_fiq_a64>:
    40001824:	90000000 	adrp	x0, 40001000 <kernel_main+0x710>
    40001828:	912d8800 	add	x0, x0, #0xb62
    4000182c:	97fffc22 	bl	400008b4 <uart_send_string>
    40001830:	14000009 	b	40001854 <exception_hang>

0000000040001834 <el0_error_a64>:
    40001834:	90000000 	adrp	x0, 40001000 <kernel_main+0x710>
    40001838:	912de800 	add	x0, x0, #0xb7a
    4000183c:	97fffc1e 	bl	400008b4 <uart_send_string>
    40001840:	14000005 	b	40001854 <exception_hang>

0000000040001844 <el0_error_a32>:
    40001844:	90000000 	adrp	x0, 40001000 <kernel_main+0x710>
    40001848:	912e5400 	add	x0, x0, #0xb95
    4000184c:	97fffc1a 	bl	400008b4 <uart_send_string>
    40001850:	14000001 	b	40001854 <exception_hang>

0000000040001854 <exception_hang>:
    40001854:	90000000 	adrp	x0, 40001000 <kernel_main+0x710>
    40001858:	912f0000 	add	x0, x0, #0xbc0
    4000185c:	97fffc16 	bl	400008b4 <uart_send_string>
    40001860:	d503205f 	wfe
    40001864:	17ffffff 	b	40001860 <exception_hang+0xc>
